target datalayout = "e-m:e-p270:32:32-p271:32:32-p272:64:64-i64:64-i128:128-f80:128-n8:16:32:64-S128"
target triple = "x86_64-pc-linux-gnu"

%struct.timespec = type { i64, i64 }
%class.RarTime = type { i64 }

; Function Attrs: mustprogress nounwind uwtable
define linkonce_odr noundef zeroext i1 @_ZN7RarTime5IsSetEv(ptr noundef nonnull align 8 dereferenceable(8) %0) #0 comdat align 2 {
  %2 = alloca ptr, align 8
  store ptr %0, ptr %2, align 8
  %3 = load ptr, ptr %2, align 8
  %4 = getelementptr inbounds %class.RarTime, ptr %3, i32 0, i32 0
  %5 = load i64, ptr %4, align 8
  %6 = icmp ne i64 %5, 0
  ret i1 %6
}

; Function Attrs: mustprogress uwtable
define void @_ZN4File22SetCloseFileTimeByNameEPKwP7RarTimeS3_(ptr noundef %0, ptr noundef %1, ptr noundef %2) #1 align 2 {
  %4 = alloca ptr, align 8
  %5 = alloca ptr, align 8
  %6 = alloca ptr, align 8
  %7 = alloca i8, align 1
  %8 = alloca i8, align 1
  %9 = alloca [2048 x i8], align 16
  %10 = alloca [2 x %struct.timespec], align 16
  store ptr %0, ptr %4, align 8
  store ptr %1, ptr %5, align 8
  store ptr %2, ptr %6, align 8
  %11 = load ptr, ptr %5, align 8
  %12 = icmp ne ptr %11, null
  br i1 %12, label %13, label %16

13:                                               ; preds = %3
  %14 = load ptr, ptr %5, align 8
  %15 = call noundef zeroext i1 @_ZN7RarTime5IsSetEv(ptr noundef nonnull align 8 dereferenceable(8) %14)
  br label %16

16:                                               ; preds = %13, %3
  %17 = phi i1 [ false, %3 ], [ %15, %13 ]
  %18 = zext i1 %17 to i8
  store i8 %18, ptr %7, align 1
  %19 = load ptr, ptr %6, align 8
  %20 = icmp ne ptr %19, null
  br i1 %20, label %21, label %24

21:                                               ; preds = %16
  %22 = load ptr, ptr %6, align 8
  %23 = call noundef zeroext i1 @_ZN7RarTime5IsSetEv(ptr noundef nonnull align 8 dereferenceable(8) %22)
  br label %24

24:                                               ; preds = %21, %16
  %25 = phi i1 [ false, %16 ], [ %23, %21 ]
  %26 = zext i1 %25 to i8
  store i8 %26, ptr %8, align 1
  %27 = load i8, ptr %7, align 1
  %28 = trunc i8 %27 to i1
  br i1 %28, label %32, label %29

29:                                               ; preds = %24
  %30 = load i8, ptr %8, align 1
  %31 = trunc i8 %30 to i1
  br i1 %31, label %32, label %81

32:                                               ; preds = %29, %24
  %33 = load ptr, ptr %4, align 8
  %34 = getelementptr inbounds [2048 x i8], ptr %9, i64 0, i64 0
  %35 = call noundef zeroext i1 @_Z10WideToCharPKwPcm(ptr noundef %33, ptr noundef %34, i64 noundef 2048)
  %36 = load i8, ptr %8, align 1
  %37 = trunc i8 %36 to i1
  br i1 %37, label %38, label %41

38:                                               ; preds = %32
  %39 = load ptr, ptr %6, align 8
  %40 = call noundef i64 @_ZN7RarTime7GetUnixEv(ptr noundef nonnull align 8 dereferenceable(8) %39)
  br label %42

41:                                               ; preds = %32
  br label %42

42:                                               ; preds = %41, %38
  %43 = phi i64 [ %40, %38 ], [ 0, %41 ]
  %44 = getelementptr inbounds [2 x %struct.timespec], ptr %10, i64 0, i64 0
  %45 = getelementptr inbounds %struct.timespec, ptr %44, i32 0, i32 0
  store i64 %43, ptr %45, align 16
  %46 = load i8, ptr %8, align 1
  %47 = trunc i8 %46 to i1
  br i1 %47, label %48, label %52

48:                                               ; preds = %42
  %49 = load ptr, ptr %6, align 8
  %50 = call noundef i64 @_ZN7RarTime9GetUnixNSEv(ptr noundef nonnull align 8 dereferenceable(8) %49)
  %51 = urem i64 %50, 1000000000
  br label %53

52:                                               ; preds = %42
  br label %53

53:                                               ; preds = %52, %48
  %54 = phi i64 [ %51, %48 ], [ 1073741823, %52 ]
  %55 = getelementptr inbounds [2 x %struct.timespec], ptr %10, i64 0, i64 0
  %56 = getelementptr inbounds %struct.timespec, ptr %55, i32 0, i32 1
  store i64 %54, ptr %56, align 8
  %57 = load i8, ptr %7, align 1
  %58 = trunc i8 %57 to i1
  br i1 %58, label %59, label %62

59:                                               ; preds = %53
  %60 = load ptr, ptr %5, align 8
  %61 = call noundef i64 @_ZN7RarTime7GetUnixEv(ptr noundef nonnull align 8 dereferenceable(8) %60)
  br label %63

62:                                               ; preds = %53
  br label %63

63:                                               ; preds = %62, %59
  %64 = phi i64 [ %61, %59 ], [ 0, %62 ]
  %65 = getelementptr inbounds [2 x %struct.timespec], ptr %10, i64 0, i64 1
  %66 = getelementptr inbounds %struct.timespec, ptr %65, i32 0, i32 0
  store i64 %64, ptr %66, align 16
  %67 = load i8, ptr %7, align 1
  %68 = trunc i8 %67 to i1
  br i1 %68, label %69, label %73

69:                                               ; preds = %63
  %70 = load ptr, ptr %5, align 8
  %71 = call noundef i64 @_ZN7RarTime9GetUnixNSEv(ptr noundef nonnull align 8 dereferenceable(8) %70)
  %72 = urem i64 %71, 1000000000
  br label %74

73:                                               ; preds = %63
  br label %74

74:                                               ; preds = %73, %69
  %75 = phi i64 [ %72, %69 ], [ 1073741823, %73 ]
  %76 = getelementptr inbounds [2 x %struct.timespec], ptr %10, i64 0, i64 1
  %77 = getelementptr inbounds %struct.timespec, ptr %76, i32 0, i32 1
  store i64 %75, ptr %77, align 8
  %78 = getelementptr inbounds [2048 x i8], ptr %9, i64 0, i64 0
  %79 = getelementptr inbounds [2 x %struct.timespec], ptr %10, i64 0, i64 0
  %80 = call i32 @utimensat(i32 noundef -100, ptr noundef %78, ptr noundef %79, i32 noundef 0) #10
  br label %81

81:                                               ; preds = %74, %29
  ret void
}