; Function Attrs: mustprogress uwtable
define void @_ZN4File22SetCloseFileTimeByNameEPKwP7RarTimeS3_(ptr noundef %0, ptr noundef %1, ptr noundef %2) local_unnamed_addr #2 align 2 {
  %4 = alloca [2048 x i8], align 16
  %5 = alloca [2 x %struct.timespec], align 16
  %.not = icmp eq ptr %1, null
  br i1 %.not, label %.thread20, label %6

6:                                                ; preds = %3
  %7 = load i64, ptr %1, align 8
  %8 = icmp ne i64 %7, 0
  %.not15 = icmp eq ptr %2, null
  br i1 %.not15, label %.thread, label %9

.thread20:                                        ; preds = %3
  %.not1521 = icmp eq ptr %2, null
  br i1 %.not1521, label %.thread.thread, label %9

9:                                                ; preds = %.thread20, %6
  %10 = phi i1 [ false, %.thread20 ], [ %8, %6 ]
  %11 = load i64, ptr %2, align 8
  %12 = icmp ne i64 %11, 0
  %brmerge = or i1 %10, %12
  br i1 %brmerge, label %15, label %.thread.thread

.thread:                                          ; preds = %6
  br i1 %8, label %.thread22, label %.thread.thread

.thread22:                                        ; preds = %.thread
  %13 = call noundef zeroext i1 @_Z10WideToCharPKwPcm(ptr noundef %0, ptr noundef nonnull %4, i64 noundef 2048)
  store i64 0, ptr %5, align 16
  %14 = getelementptr inbounds i8, ptr %5, i64 8
  store i64 1073741823, ptr %14, align 8
  br label %24

15:                                               ; preds = %9
  %16 = call noundef zeroext i1 @_Z10WideToCharPKwPcm(ptr noundef %0, ptr noundef nonnull %4, i64 noundef 2048)
  br i1 %12, label %17, label %22

17:                                               ; preds = %15
  %18 = call noundef i64 @_ZN7RarTime7GetUnixEv(ptr noundef nonnull align 8 dereferenceable(8) %2)
  store i64 %18, ptr %5, align 16
  %19 = call noundef i64 @_ZN7RarTime9GetUnixNSEv(ptr noundef nonnull align 8 dereferenceable(8) %2)
  %20 = urem i64 %19, 1000000000
  %21 = getelementptr inbounds i8, ptr %5, i64 8
  store i64 %20, ptr %21, align 8
  br i1 %10, label %24, label %.critedge17

22:                                               ; preds = %15
  store i64 0, ptr %5, align 16
  %23 = getelementptr inbounds i8, ptr %5, i64 8
  store i64 1073741823, ptr %23, align 8
  br i1 %10, label %24, label %.critedge17

24:                                               ; preds = %.thread22, %17, %22
  %25 = call noundef i64 @_ZN7RarTime7GetUnixEv(ptr noundef nonnull align 8 dereferenceable(8) %1)
  %26 = getelementptr inbounds i8, ptr %5, i64 16
  store i64 %25, ptr %26, align 16
  %27 = call noundef i64 @_ZN7RarTime9GetUnixNSEv(ptr noundef nonnull align 8 dereferenceable(8) %1)
  %28 = urem i64 %27, 1000000000
  br label %30

.critedge17:                                      ; preds = %17, %22
  %29 = getelementptr inbounds i8, ptr %5, i64 16
  store i64 0, ptr %29, align 16
  br label %30

30:                                               ; preds = %.critedge17, %24
  %31 = phi i64 [ %28, %24 ], [ 1073741823, %.critedge17 ]
  %32 = getelementptr inbounds i8, ptr %5, i64 24
  store i64 %31, ptr %32, align 8
  %33 = call i32 @utimensat(i32 noundef -100, ptr noundef nonnull %4, ptr noundef nonnull %5, i32 noundef 0) #18
  br label %.thread.thread

.thread.thread:                                   ; preds = %.thread20, %.thread, %9, %30
  ret void
}